; Function Attrs: mustprogress uwtable
define hidden noundef float @_ZN4nori7toFloatERKNSt7__cxx1112basic_stringIcSt11char_traitsIcESaIcEEE(ptr noundef nonnull align 8 dereferenceable(32) %0) local_unnamed_addr #3 personality ptr @__gxx_personality_v0 {
  %2 = alloca ptr, align 8
  store ptr null, ptr %2, align 8
  %3 = tail call noundef ptr @_ZNKSt7__cxx1112basic_stringIcSt11char_traitsIcESaIcEE5c_strEv(ptr noundef nonnull align 8 dereferenceable(32) %0) #26
  %4 = call float @strtof(ptr noundef %3, ptr noundef nonnull %2) #26
  %5 = load ptr, ptr %2, align 8
  %6 = load i8, ptr %5, align 1
  %.not = icmp eq i8 %6, 0
  br i1 %.not, label %12, label %7

7:                                                ; preds = %1
  %8 = tail call ptr @__cxa_allocate_exception(i64 16) #26
  invoke void @_ZN4nori13NoriExceptionC2IJNSt7__cxx1112basic_stringIcSt11char_traitsIcESaIcEEEEEEPKcDpRKT_(ptr noundef nonnull align 8 dereferenceable(16) %8, ptr noundef nonnull @.str.4, ptr noundef nonnull align 8 dereferenceable(32) %0)
          to label %9 unwind label %10

9:                                                ; preds = %7
  tail call void @__cxa_throw(ptr nonnull %8, ptr nonnull @_ZTIN4nori13NoriExceptionE, ptr nonnull @_ZN4nori13NoriExceptionD2Ev) #27
  unreachable

10:                                               ; preds = %7
  %11 = landingpad { ptr, i32 }
          cleanup
  tail call void @__cxa_free_exception(ptr %8) #26
  resume { ptr, i32 } %11

12:                                               ; preds = %1
  ret float %4
}